; Function Attrs: mustprogress nounwind uwtable
define void @_ZN2mu14ParserCallbackD2Ev(ptr noundef nonnull readonly align 8 captures(none) dereferenceable(32) %0) unnamed_addr #3 align 2 {
  %2 = getelementptr inbounds nuw i8, ptr %0, i64 8
  %3 = load i32, ptr %2, align 8, !tbaa !14
  %4 = and i32 %3, 8192
  %.not = icmp eq i32 %4, 0
  br i1 %.not, label %9, label %5

5:                                                ; preds = %1
  %6 = load ptr, ptr %0, align 8, !tbaa !4
  %7 = icmp eq ptr %6, null
  br i1 %7, label %9, label %8

8:                                                ; preds = %5
  tail call void @_ZdlPv(ptr noundef nonnull %6) #13
  br label %9

9:                                                ; preds = %5, %8, %1
  ret void
}